Certificate:
    Data:
        Version: 3 (0x2)
        Serial Number: 3 (0x3)
        Signature Algorithm: sha256WithRSAEncryption
        Issuer: C=CZ, ST=OVM, L=Praha, O=MinFin, OU=MinFinCA, CN=MinFinHazardCA/name=EasyRSA/emailAddress=hazard@myhost.mydomain
        Validity
            Not Before: Feb 22 15:17:19 2019 GMT
            Not After : Feb 19 15:17:19 2029 GMT
        Subject: C=CZ, ST=OVM, L=Praha, O=MinFin, OU=MinFinCA, CN=mf-aisg-sifrovaci/name=EasyRSA/emailAddress=hazard@myhost.mydomain
        Subject Public Key Info:
            Public Key Algorithm: rsaEncryption
                RSA Public-Key: (2048 bit)
                Modulus:
                    00:b5:fa:63:6e:a6:51:f8:14:69:26:c4:5d:a6:f0:
                    a9:0f:e4:ad:30:86:63:e1:b1:eb:2c:4a:3c:4d:3f:
                    22:6a:f3:5b:01:8c:f4:dd:28:fa:b7:03:44:65:66:
                    b6:20:d0:56:35:96:f5:63:fc:26:98:ad:39:f7:73:
                    35:b8:32:bd:d0:6d:9a:91:0e:8a:f2:10:0c:6e:5d:
                    cb:e1:80:38:48:40:d0:0a:35:4b:70:99:0c:a0:3d:
                    f0:38:85:8a:50:ca:b9:2b:64:eb:6c:45:c1:98:a6:
                    a8:ba:ac:ef:ea:f6:e4:ec:dd:6e:79:18:2f:97:5b:
                    e0:d8:6e:32:46:cf:44:d6:b9:a1:34:74:e5:06:0c:
                    4d:59:ea:b0:8e:7b:3e:0c:44:f6:da:a2:1b:c6:d6:
                    ae:b8:17:c2:9a:24:0c:75:2e:8d:fd:ea:33:0d:1f:
                    e4:25:fa:47:a1:96:51:84:4e:52:b3:64:95:8e:c7:
                    e5:58:af:99:bc:7b:cb:12:f4:e2:da:4e:ca:49:39:
                    61:20:29:8d:ca:ed:37:83:49:f3:14:55:4d:48:7f:
                    6a:e0:34:95:30:45:ad:35:45:6a:6f:de:b7:a2:db:
                    fe:59:84:f2:02:49:b9:5b:6a:b2:f3:bf:73:92:72:
                    47:06:e0:f8:15:e1:d9:64:f3:29:20:69:a3:71:80:
                    1b:09
                Exponent: 65537 (0x10001)
        X509v3 extensions:
            X509v3 Basic Constraints: 
                CA:FALSE
            Netscape Comment: 
                Easy-RSA Generated Certificate
            X509v3 Subject Key Identifier: 
                F9:96:D8:F1:27:54:94:33:A0:5A:8F:95:C6:69:35:DF:00:6B:50:86
            X509v3 Authority Key Identifier: 
                keyid:AB:97:8A:2A:D9:9B:C1:44:61:47:0E:49:49:57:D9:5F:B5:8F:47:98
                DirName:/C=CZ/ST=OVM/L=Praha/O=MinFin/OU=MinFinCA/CN=MinFinHazardCA/name=EasyRSA/emailAddress=hazard@myhost.mydomain
                serial:D5:55:8B:A2:B3:E3:95:C6

            X509v3 Extended Key Usage: 
                TLS Web Client Authentication
            X509v3 Key Usage: 
                Digital Signature
            X509v3 Subject Alternative Name: 
                DNS:mf-aisg-sifrovaci
    Signature Algorithm: sha256WithRSAEncryption
         9f:19:fb:05:08:4f:3a:98:95:7b:0b:0f:87:74:0c:f7:ae:58:
         61:f2:69:fc:f0:86:96:12:96:79:d6:2c:23:5d:8e:5a:23:d9:
         7c:95:34:68:ff:cc:a3:8c:1e:7e:7c:d5:1b:e0:1f:5f:9e:36:
         99:24:04:78:30:a2:d4:1e:1e:9e:c2:27:b9:ab:07:d0:a4:90:
         1f:07:8c:d5:bf:59:5e:38:10:27:55:a3:6e:6b:27:aa:18:b5:
         3a:3f:98:8a:11:da:cf:23:49:65:59:62:06:9f:0a:a9:4b:53:
         5f:b2:14:3f:92:9b:ec:e9:c5:2c:3a:00:e0:3e:e5:b6:f4:1f:
         06:d0:cf:ca:eb:09:5a:61:e5:86:b4:87:a8:3c:98:d6:44:75:
         6c:74:fe:37:2b:76:c4:15:81:17:78:76:ea:66:45:b4:bc:fb:
         fb:8a:51:6f:23:dc:ec:d1:74:2d:52:07:5e:dc:16:b1:1b:14:
         8a:ff:4c:c3:99:c6:96:f2:6d:04:d4:2e:50:8c:39:34:1d:3c:
         f8:39:e2:5e:6b:10:af:68:b5:24:3b:82:c4:51:b2:5f:cc:aa:
         2d:49:0d:0e:48:94:fb:11:84:6d:fd:24:aa:4e:e8:2f:cf:d3:
         fa:66:63:cc:63:08:17:73:2b:03:fc:6a:52:23:4a:0a:f0:8e:
         fd:3e:f9:4e
-----BEGIN CERTIFICATE-----
MIIFOjCCBCKgAwIBAgIBAzANBgkqhkiG9w0BAQsFADCBoTELMAkGA1UEBhMCQ1ox
DDAKBgNVBAgTA09WTTEOMAwGA1UEBxMFUHJhaGExDzANBgNVBAoTBk1pbkZpbjER
MA8GA1UECxMITWluRmluQ0ExFzAVBgNVBAMTDk1pbkZpbkhhemFyZENBMRAwDgYD
VQQpEwdFYXN5UlNBMSUwIwYJKoZIhvcNAQkBFhZoYXphcmRAbXlob3N0Lm15ZG9t
YWluMB4XDTE5MDIyMjE1MTcxOVoXDTI5MDIxOTE1MTcxOVowgaQxCzAJBgNVBAYT
AkNaMQwwCgYDVQQIEwNPVk0xDjAMBgNVBAcTBVByYWhhMQ8wDQYDVQQKEwZNaW5G
aW4xETAPBgNVBAsTCE1pbkZpbkNBMRowGAYDVQQDExFtZi1haXNnLXNpZnJvdmFj
aTEQMA4GA1UEKRMHRWFzeVJTQTElMCMGCSqGSIb3DQEJARYWaGF6YXJkQG15aG9z
dC5teWRvbWFpbjCCASIwDQYJKoZIhvcNAQEBBQADggEPADCCAQoCggEBALX6Y26m
UfgUaSbEXabwqQ/krTCGY+Gx6yxKPE0/ImrzWwGM9N0o+rcDRGVmtiDQVjWW9WP8
JpitOfdzNbgyvdBtmpEOivIQDG5dy+GAOEhA0Ao1S3CZDKA98DiFilDKuStk62xF
wZimqLqs7+r25OzdbnkYL5db4NhuMkbPRNa5oTR05QYMTVnqsI57PgxE9tqiG8bW
rrgXwpokDHUujf3qMw0f5CX6R6GWUYROUrNklY7H5Vivmbx7yxL04tpOykk5YSAp
jcrtN4NJ8xRVTUh/auA0lTBFrTVFam/et6Lb/lmE8gJJuVtqsvO/c5JyRwbg+BXh
2WTzKSBpo3GAGwkCAwEAAaOCAXYwggFyMAkGA1UdEwQCMAAwLQYJYIZIAYb4QgEN
BCAWHkVhc3ktUlNBIEdlbmVyYXRlZCBDZXJ0aWZpY2F0ZTAdBgNVHQ4EFgQU+ZbY
8SdUlDOgWo+Vxmk13wBrUIYwgdYGA1UdIwSBzjCBy4AUq5eKKtmbwURhRw5JSVfZ
X7WPR5ihgaekgaQwgaExCzAJBgNVBAYTAkNaMQwwCgYDVQQIEwNPVk0xDjAMBgNV
BAcTBVByYWhhMQ8wDQYDVQQKEwZNaW5GaW4xETAPBgNVBAsTCE1pbkZpbkNBMRcw
FQYDVQQDEw5NaW5GaW5IYXphcmRDQTEQMA4GA1UEKRMHRWFzeVJTQTElMCMGCSqG
SIb3DQEJARYWaGF6YXJkQG15aG9zdC5teWRvbWFpboIJANVVi6Kz45XGMBMGA1Ud
JQQMMAoGCCsGAQUFBwMCMAsGA1UdDwQEAwIHgDAcBgNVHREEFTATghFtZi1haXNn
LXNpZnJvdmFjaTANBgkqhkiG9w0BAQsFAAOCAQEAnxn7BQhPOpiVewsPh3QM965Y
YfJp/PCGlhKWedYsI12OWiPZfJU0aP/Mo4wefnzVG+AfX542mSQEeDCi1B4ensIn
uasH0KSQHweM1b9ZXjgQJ1Wjbmsnqhi1Oj+YihHazyNJZVliBp8KqUtTX7IUP5Kb
7OnFLDoA4D7ltvQfBtDPyusJWmHlhrSHqDyY1kR1bHT+Nyt2xBWBF3h26mZFtLz7
+4pRbyPc7NF0LVIHXtwWsRsUiv9Mw5nGlvJtBNQuUIw5NB08+DniXmsQr2i1JDuC
xFGyX8yqLUkNDkiU+xGEbf0kqk7oL8/T+mZjzGMIF3MrA/xqUiNKCvCO/T75Tg==
-----END CERTIFICATE-----
