Certificate:
    Data:
        Version: 3 (0x2)
        Serial Number: 3 (0x3)
        Signature Algorithm: sha256WithRSAEncryption
        Issuer: C=CZ, ST=Cechy, L=Pribram, O=test-hazard-CA, OU=TestCA, CN=TestCA/name=EasyRSA/emailAddress=ca@fortuna.cz
        Validity
            Not Before: Feb 20 21:28:41 2019 GMT
            Not After : Feb 17 21:28:41 2029 GMT
        Subject: C=CZ, ST=Cechy, L=Pribram, O=TestHazadrOrg, OU=TestHazardHQ, CN=test-hazard-sifrovani/name=EasyRSA/emailAddress=ca@fortuna.cz
        Subject Public Key Info:
            Public Key Algorithm: rsaEncryption
                RSA Public-Key: (2048 bit)
                Modulus:
                    00:af:33:46:4d:31:1d:c1:0e:d9:7b:86:b3:a9:21:
                    60:22:0d:fc:e3:f5:c4:39:32:ca:84:8f:26:fc:54:
                    b9:d6:e9:73:29:aa:88:39:e2:86:65:42:2c:fd:b5:
                    2e:f8:c1:7e:f8:d9:f6:9b:d6:f0:6e:cd:72:36:7a:
                    d5:01:60:7f:9f:8e:6e:b5:94:80:7a:4d:47:1f:06:
                    1f:6c:13:57:34:ef:56:15:d4:cc:b6:c3:f8:cf:cb:
                    0f:11:fc:78:a2:52:43:ea:3a:1f:b7:eb:61:7b:73:
                    82:c7:bd:2a:a2:3b:b5:06:46:e8:4f:c6:39:5b:86:
                    56:11:72:f8:ee:5c:e1:57:4c:12:21:f4:8c:0b:07:
                    5a:eb:1a:0d:6a:0c:13:03:1a:d4:88:05:38:61:f3:
                    69:67:bd:0f:d2:35:7a:a6:b7:20:5f:32:d3:2e:65:
                    9c:83:52:b8:91:eb:c9:e9:aa:6d:c4:de:6f:8a:3d:
                    e3:5c:e5:32:16:0f:ee:02:ba:b8:5e:9c:7a:f7:a9:
                    4a:58:74:d5:5b:83:5c:a0:79:f4:f5:8a:53:78:4e:
                    19:c2:ba:75:b4:8a:8d:60:b8:e0:a0:ba:7c:66:f8:
                    9a:f1:d6:dc:8f:80:ee:af:92:d2:96:5d:a1:e4:82:
                    77:f9:99:31:e7:0a:af:8f:e4:b9:e6:ae:05:52:4d:
                    25:b7
                Exponent: 65537 (0x10001)
        X509v3 extensions:
            X509v3 Basic Constraints: 
                CA:FALSE
            Netscape Comment: 
                Easy-RSA Generated Certificate
            X509v3 Subject Key Identifier: 
                1A:B2:E1:36:B0:E5:57:CB:0D:D4:66:EB:E4:81:CF:81:4D:B4:CC:71
            X509v3 Authority Key Identifier: 
                keyid:34:9E:D3:3D:65:71:A0:F1:C5:2D:26:71:00:0C:7C:1D:01:E1:F7:35
                DirName:/C=CZ/ST=Cechy/L=Pribram/O=test-hazard-CA/OU=TestCA/CN=TestCA/name=EasyRSA/emailAddress=ca@fortuna.cz
                serial:13:F8:60:50:B4:30:6D:6E:06:96:A6:BA:87:18:54:A6:47:91:0E:78

            X509v3 Extended Key Usage: 
                TLS Web Client Authentication
            X509v3 Key Usage: 
                Digital Signature
            X509v3 Subject Alternative Name: 
                DNS:test-hazard-sifrovani
    Signature Algorithm: sha256WithRSAEncryption
         c9:2b:1e:78:42:29:c5:1f:46:f1:07:f2:98:31:94:d4:93:3a:
         50:a5:9a:5c:e0:cf:66:77:92:14:7e:8a:9b:e9:80:17:93:2d:
         40:db:00:76:5d:8d:2d:04:17:3a:17:25:25:1c:7b:90:61:62:
         bd:59:9a:91:32:91:9b:35:5c:1c:7a:2f:bd:8f:b5:43:57:59:
         50:4b:22:3e:53:5f:89:f1:bc:46:b7:31:84:b9:96:d6:8c:3e:
         57:4a:59:cf:62:e4:e8:67:0f:f8:2c:57:e1:bf:45:19:e4:3a:
         aa:fa:c9:a1:f7:0f:22:3a:31:50:d7:aa:24:53:9b:e1:8c:42:
         9e:36:4e:40:cb:1e:1f:92:a5:1b:6e:20:c7:15:d9:ed:de:e0:
         8c:49:be:3e:87:e4:6f:16:d0:4c:21:72:b0:6c:d9:08:af:76:
         ee:73:89:8e:78:1b:e0:9e:0d:f4:f8:7f:33:ff:1e:aa:d9:46:
         02:9a:36:48:45:16:2c:57:a0:ec:5f:e6:a4:fd:0b:b4:17:e5:
         2b:1d:aa:5b:a8:a8:c1:1c:55:00:b2:2c:04:91:eb:ef:5a:ee:
         b8:69:2e:cd:2a:f6:b3:6e:af:68:a9:1b:8e:f6:0a:e5:cc:56:
         ca:51:b9:94:23:b7:27:24:39:ad:ce:1a:94:12:02:a1:7c:45:
         ee:a5:54:1c
-----BEGIN CERTIFICATE-----
MIIFRTCCBC2gAwIBAgIBAzANBgkqhkiG9w0BAQsFADCBmjELMAkGA1UEBhMCQ1ox
DjAMBgNVBAgTBUNlY2h5MRAwDgYDVQQHEwdQcmlicmFtMRcwFQYDVQQKEw50ZXN0
LWhhemFyZC1DQTEPMA0GA1UECxMGVGVzdENBMQ8wDQYDVQQDEwZUZXN0Q0ExEDAO
BgNVBCkTB0Vhc3lSU0ExHDAaBgkqhkiG9w0BCQEWDWNhQGZvcnR1bmEuY3owHhcN
MTkwMjIwMjEyODQxWhcNMjkwMjE3MjEyODQxWjCBrjELMAkGA1UEBhMCQ1oxDjAM
BgNVBAgTBUNlY2h5MRAwDgYDVQQHEwdQcmlicmFtMRYwFAYDVQQKEw1UZXN0SGF6
YWRyT3JnMRUwEwYDVQQLEwxUZXN0SGF6YXJkSFExHjAcBgNVBAMTFXRlc3QtaGF6
YXJkLXNpZnJvdmFuaTEQMA4GA1UEKRMHRWFzeVJTQTEcMBoGCSqGSIb3DQEJARYN
Y2FAZm9ydHVuYS5jejCCASIwDQYJKoZIhvcNAQEBBQADggEPADCCAQoCggEBAK8z
Rk0xHcEO2XuGs6khYCIN/OP1xDkyyoSPJvxUudbpcymqiDnihmVCLP21LvjBfvjZ
9pvW8G7NcjZ61QFgf5+ObrWUgHpNRx8GH2wTVzTvVhXUzLbD+M/LDxH8eKJSQ+o6
H7frYXtzgse9KqI7tQZG6E/GOVuGVhFy+O5c4VdMEiH0jAsHWusaDWoMEwMa1IgF
OGHzaWe9D9I1eqa3IF8y0y5lnINSuJHryemqbcTeb4o941zlMhYP7gK6uF6cevep
Slh01VuDXKB59PWKU3hOGcK6dbSKjWC44KC6fGb4mvHW3I+A7q+S0pZdoeSCd/mZ
MecKr4/kueauBVJNJbcCAwEAAaOCAX4wggF6MAkGA1UdEwQCMAAwLQYJYIZIAYb4
QgENBCAWHkVhc3ktUlNBIEdlbmVyYXRlZCBDZXJ0aWZpY2F0ZTAdBgNVHQ4EFgQU
GrLhNrDlV8sN1Gbr5IHPgU20zHEwgdoGA1UdIwSB0jCBz4AUNJ7TPWVxoPHFLSZx
AAx8HQHh9zWhgaCkgZ0wgZoxCzAJBgNVBAYTAkNaMQ4wDAYDVQQIEwVDZWNoeTEQ
MA4GA1UEBxMHUHJpYnJhbTEXMBUGA1UEChMOdGVzdC1oYXphcmQtQ0ExDzANBgNV
BAsTBlRlc3RDQTEPMA0GA1UEAxMGVGVzdENBMRAwDgYDVQQpEwdFYXN5UlNBMRww
GgYJKoZIhvcNAQkBFg1jYUBmb3J0dW5hLmN6ghQT+GBQtDBtbgaWprqHGFSmR5EO
eDATBgNVHSUEDDAKBggrBgEFBQcDAjALBgNVHQ8EBAMCB4AwIAYDVR0RBBkwF4IV
dGVzdC1oYXphcmQtc2lmcm92YW5pMA0GCSqGSIb3DQEBCwUAA4IBAQDJKx54QinF
H0bxB/KYMZTUkzpQpZpc4M9md5IUfoqb6YAXky1A2wB2XY0tBBc6FyUlHHuQYWK9
WZqRMpGbNVwcei+9j7VDV1lQSyI+U1+J8bxGtzGEuZbWjD5XSlnPYuToZw/4LFfh
v0UZ5Dqq+smh9w8iOjFQ16okU5vhjEKeNk5Ayx4fkqUbbiDHFdnt3uCMSb4+h+Rv
FtBMIXKwbNkIr3buc4mOeBvgng30+H8z/x6q2UYCmjZIRRYsV6DsX+ak/Qu0F+Ur
HapbqKjBHFUAsiwEkevvWu64aS7NKvazbq9oqRuO9grlzFbKUbmUI7cnJDmtzhqU
EgKhfEXupVQc
-----END CERTIFICATE-----
